; Function Attrs: nounwind uwtable
define void @Gia_ManMulFindAddEntry(ptr noundef captures(none) %0, i32 noundef %1, i32 noundef %2) local_unnamed_addr #0 {
  %4 = getelementptr i8, ptr %0, i64 4
  %.val20 = load i32, ptr %4, align 4, !tbaa !33
  %5 = icmp sgt i32 %.val20, 2
  br i1 %5, label %.lr.ph, label %.critedge

.lr.ph:                                           ; preds = %3
  %6 = getelementptr i8, ptr %0, i64 8
  %.val23 = load ptr, ptr %6, align 8, !tbaa !35
  %invariant.gep = getelementptr inbounds nuw i8, ptr %.val23, i64 4
  br label %7

7:                                                ; preds = %.lr.ph, %20
  %indvars.iv = phi i64 [ 0, %.lr.ph ], [ %indvars.iv.next, %20 ]
  %8 = getelementptr inbounds nuw i32, ptr %.val23, i64 %indvars.iv
  %9 = load i32, ptr %8, align 4, !tbaa !29
  %gep = getelementptr inbounds nuw i32, ptr %invariant.gep, i64 %indvars.iv
  %10 = load i32, ptr %gep, align 4, !tbaa !29
  %11 = icmp eq i32 %1, %9
  %12 = icmp eq i32 %2, %10
  %or.cond = select i1 %11, i1 %12, i1 false
  br i1 %or.cond, label %13, label %20

13:                                               ; preds = %7
  %14 = trunc nuw nsw i64 %indvars.iv to i32
  %15 = and i64 %indvars.iv, 4294967295
  %16 = getelementptr inbounds nuw i32, ptr %.val23, i64 %15
  %17 = getelementptr inbounds nuw i8, ptr %16, i64 8
  %18 = load i32, ptr %17, align 4, !tbaa !29
  %19 = add nsw i32 %18, 1
  store i32 %19, ptr %17, align 4, !tbaa !29
  %.val.pr = load i32, ptr %4, align 4, !tbaa !33
  br label %.critedge

20:                                               ; preds = %7
  %indvars.iv.next = add nuw nsw i64 %indvars.iv, 3
  %21 = trunc i64 %indvars.iv to i32
  %22 = add i32 %21, 5
  %23 = icmp slt i32 %22, %.val20
  br i1 %23, label %7, label %.critedge.loopexit.loopexit, !llvm.loop !79

.critedge.loopexit.loopexit:                      ; preds = %20
  %24 = trunc nuw i64 %indvars.iv.next to i32
  br label %.critedge

.critedge:                                        ; preds = %3, %.critedge.loopexit.loopexit, %13
  %.030 = phi i32 [ %14, %13 ], [ 0, %3 ], [ %24, %.critedge.loopexit.loopexit ]
  %.val = phi i32 [ %.val.pr, %13 ], [ %.val20, %3 ], [ %.val20, %.critedge.loopexit.loopexit ]
  %25 = icmp eq i32 %.030, %.val
  br i1 %25, label %26, label %84

26:                                               ; preds = %.critedge
  %27 = load i32, ptr %0, align 8, !tbaa !34
  %28 = icmp eq i32 %.030, %27
  br i1 %28, label %29, label %.Vec_IntGrow.exit10_crit_edge.i.i

.Vec_IntGrow.exit10_crit_edge.i.i:                ; preds = %26
  %.phi.trans.insert.i.i = getelementptr inbounds nuw i8, ptr %0, i64 8
  %.pre.i.i = load ptr, ptr %.phi.trans.insert.i.i, align 8, !tbaa !35
  br label %Vec_IntPush.exit.i

29:                                               ; preds = %26
  %30 = icmp slt i32 %.030, 16
  br i1 %30, label %31, label %39

31:                                               ; preds = %29
  %32 = getelementptr inbounds nuw i8, ptr %0, i64 8
  %33 = load ptr, ptr %32, align 8, !tbaa !35
  %.not9.i.i.i = icmp eq ptr %33, null
  br i1 %.not9.i.i.i, label %36, label %34

34:                                               ; preds = %31
  %35 = tail call dereferenceable_or_null(64) ptr @realloc(ptr noundef nonnull %33, i64 noundef 64) #20
  br label %Vec_IntGrow.exit.i.i

36:                                               ; preds = %31
  %37 = tail call noalias dereferenceable_or_null(64) ptr @malloc(i64 noundef 64) #21
  br label %Vec_IntGrow.exit.i.i

Vec_IntGrow.exit.i.i:                             ; preds = %36, %34
  %38 = phi ptr [ %35, %34 ], [ %37, %36 ]
  store ptr %38, ptr %32, align 8, !tbaa !35
  store i32 16, ptr %0, align 8, !tbaa !34
  br label %Vec_IntPush.exit.i

39:                                               ; preds = %29
  %40 = shl nuw nsw i32 %.030, 1
  %41 = getelementptr inbounds nuw i8, ptr %0, i64 8
  %42 = load ptr, ptr %41, align 8, !tbaa !35
  %.not9.i9.i.i = icmp eq ptr %42, null
  %43 = zext nneg i32 %40 to i64
  %44 = shl nuw nsw i64 %43, 2
  br i1 %.not9.i9.i.i, label %47, label %45

45:                                               ; preds = %39
  %46 = tail call ptr @realloc(ptr noundef nonnull %42, i64 noundef %44) #20
  br label %49

47:                                               ; preds = %39
  %48 = tail call noalias ptr @malloc(i64 noundef %44) #21
  br label %49

49:                                               ; preds = %47, %45
  %50 = phi ptr [ %46, %45 ], [ %48, %47 ]
  store ptr %50, ptr %41, align 8, !tbaa !35
  store i32 %40, ptr %0, align 8, !tbaa !34
  br label %Vec_IntPush.exit.i

Vec_IntPush.exit.i:                               ; preds = %49, %Vec_IntGrow.exit.i.i, %.Vec_IntGrow.exit10_crit_edge.i.i
  %51 = phi ptr [ %.pre.i.i, %.Vec_IntGrow.exit10_crit_edge.i.i ], [ %50, %49 ], [ %38, %Vec_IntGrow.exit.i.i ]
  %52 = load i32, ptr %4, align 4, !tbaa !33
  %53 = add nsw i32 %52, 1
  store i32 %53, ptr %4, align 4, !tbaa !33
  %54 = sext i32 %52 to i64
  %55 = getelementptr inbounds i32, ptr %51, i64 %54
  store i32 %1, ptr %55, align 4, !tbaa !29
  %56 = load i32, ptr %4, align 4, !tbaa !33
  %57 = load i32, ptr %0, align 8, !tbaa !34
  %58 = icmp eq i32 %56, %57
  br i1 %58, label %Vec_IntPush.exit11.sink.split.i, label %Vec_IntPush.exit11.i

Vec_IntPush.exit11.sink.split.i:                  ; preds = %Vec_IntPush.exit.i
  %59 = icmp slt i32 %56, 16
  %60 = shl nuw nsw i32 %56, 1
  %61 = zext nneg i32 %60 to i64
  %62 = shl nuw nsw i64 %61, 2
  %.sink38 = select i1 %59, i64 64, i64 %62
  %.sink.i = select i1 %59, i32 16, i32 %60
  %63 = tail call ptr @realloc(ptr noundef nonnull %51, i64 noundef %.sink38) #20
  %64 = getelementptr inbounds nuw i8, ptr %0, i64 8
  store ptr %63, ptr %64, align 8, !tbaa !35
  store i32 %.sink.i, ptr %0, align 8, !tbaa !34
  %.pre = load i32, ptr %4, align 4, !tbaa !33
  br label %Vec_IntPush.exit11.i

Vec_IntPush.exit11.i:                             ; preds = %Vec_IntPush.exit11.sink.split.i, %Vec_IntPush.exit.i
  %65 = phi i32 [ %56, %Vec_IntPush.exit.i ], [ %.pre, %Vec_IntPush.exit11.sink.split.i ]
  %66 = phi ptr [ %51, %Vec_IntPush.exit.i ], [ %63, %Vec_IntPush.exit11.sink.split.i ]
  %67 = add nsw i32 %65, 1
  store i32 %67, ptr %4, align 4, !tbaa !33
  %68 = sext i32 %65 to i64
  %69 = getelementptr inbounds i32, ptr %66, i64 %68
  store i32 %2, ptr %69, align 4, !tbaa !29
  %70 = load i32, ptr %4, align 4, !tbaa !33
  %71 = load i32, ptr %0, align 8, !tbaa !34
  %72 = icmp eq i32 %70, %71
  br i1 %72, label %Vec_IntPush.exit18.sink.split.i, label %Vec_IntPushThree.exit

Vec_IntPush.exit18.sink.split.i:                  ; preds = %Vec_IntPush.exit11.i
  %73 = icmp slt i32 %70, 16
  %74 = shl nuw nsw i32 %70, 1
  %75 = zext nneg i32 %74 to i64
  %76 = shl nuw nsw i64 %75, 2
  %.sink = select i1 %73, i64 64, i64 %76
  %.sink20.i = select i1 %73, i32 16, i32 %74
  %77 = tail call ptr @realloc(ptr noundef nonnull %66, i64 noundef %.sink) #20
  %78 = getelementptr inbounds nuw i8, ptr %0, i64 8
  store ptr %77, ptr %78, align 8, !tbaa !35
  store i32 %.sink20.i, ptr %0, align 8, !tbaa !34
  %.pre36 = load i32, ptr %4, align 4, !tbaa !33
  br label %Vec_IntPushThree.exit

Vec_IntPushThree.exit:                            ; preds = %Vec_IntPush.exit11.i, %Vec_IntPush.exit18.sink.split.i
  %79 = phi i32 [ %70, %Vec_IntPush.exit11.i ], [ %.pre36, %Vec_IntPush.exit18.sink.split.i ]
  %80 = phi ptr [ %66, %Vec_IntPush.exit11.i ], [ %77, %Vec_IntPush.exit18.sink.split.i ]
  %81 = add nsw i32 %79, 1
  store i32 %81, ptr %4, align 4, !tbaa !33
  %82 = sext i32 %79 to i64
  %83 = getelementptr inbounds i32, ptr %80, i64 %82
  store i32 1, ptr %83, align 4, !tbaa !29
  br label %84

84:                                               ; preds = %Vec_IntPushThree.exit, %.critedge
  ret void
}